; ModuleID = '5/1185.c'
source_filename = "5/1185.c"
target datalayout = "e-m:e-p270:32:32-p271:32:32-p272:64:64-i64:64-f80:128-n8:16:32:64-S128"
target triple = "x86_64-pc-linux-gnu"

@.str = private unnamed_addr constant [4 x i8] c"%lf\00", align 1
@.str.1 = private unnamed_addr constant [3 x i8] c"%s\00", align 1
@.str.2 = private unnamed_addr constant [6 x i8] c"error\00", align 1
@.str.3 = private unnamed_addr constant [4 x i8] c"yes\00", align 1
@.str.4 = private unnamed_addr constant [3 x i8] c"no\00", align 1

; Function Attrs: noinline nounwind uwtable
define dso_local i32 @main() #0 {
  %1 = alloca i32, align 4
  %2 = alloca double, align 8
  %3 = alloca double, align 8
  %4 = alloca double, align 8
  %5 = alloca double, align 8
  %6 = alloca double, align 8
  %7 = alloca double, align 8
  %8 = alloca double, align 8
  %9 = alloca [501 x i8], align 16
  %10 = alloca [501 x i8], align 16
  %11 = alloca i32, align 4
  store i32 0, i32* %1, align 4
  store double 1.000000e+00, double* %5, align 8
  store double 0.000000e+00, double* %6, align 8
  store double 1.000000e+00, double* %7, align 8
  %12 = call i32 (i8*, ...) @__isoc99_scanf(i8* getelementptr inbounds ([4 x i8], [4 x i8]* @.str, i64 0, i64 0), double* %2)
  %13 = getelementptr inbounds [501 x i8], [501 x i8]* %9, i64 0, i64 0
  %14 = call i32 (i8*, ...) @__isoc99_scanf(i8* getelementptr inbounds ([3 x i8], [3 x i8]* @.str.1, i64 0, i64 0), i8* %13)
  %15 = getelementptr inbounds [501 x i8], [501 x i8]* %10, i64 0, i64 0
  %16 = call i32 (i8*, ...) @__isoc99_scanf(i8* getelementptr inbounds ([3 x i8], [3 x i8]* @.str.1, i64 0, i64 0), i8* %15)
  %17 = getelementptr inbounds [501 x i8], [501 x i8]* %9, i64 0, i64 0
  %18 = call i64 @strlen(i8* %17) #3
  %19 = uitofp i64 %18 to double
  store double %19, double* %3, align 8
  %20 = getelementptr inbounds [501 x i8], [501 x i8]* %10, i64 0, i64 0
  %21 = call i64 @strlen(i8* %20) #3
  %22 = uitofp i64 %21 to double
  store double %22, double* %4, align 8
  %23 = load double, double* %3, align 8
  %24 = load double, double* %4, align 8
  %25 = fcmp une double %23, %24
  br i1 %25, label %26, label %28

26:                                               ; preds = %0
  %27 = call i32 (i8*, ...) @printf(i8* getelementptr inbounds ([6 x i8], [6 x i8]* @.str.2, i64 0, i64 0))
  br label %28

28:                                               ; preds = %26, %0
  store i32 0, i32* %11, align 4
  br label %29

29:                                               ; preds = %98, %28
  %30 = load i32, i32* %11, align 4
  %31 = sitofp i32 %30 to double
  %32 = load double, double* %3, align 8
  %33 = fsub double %32, 1.000000e+00
  %34 = fcmp olt double %31, %33
  br i1 %34, label %35, label %101

35:                                               ; preds = %29
  %36 = load i32, i32* %11, align 4
  %37 = sext i32 %36 to i64
  %38 = getelementptr inbounds [501 x i8], [501 x i8]* %9, i64 0, i64 %37
  %39 = load i8, i8* %38, align 1
  %40 = sext i8 %39 to i32
  %41 = icmp eq i32 %40, 65
  br i1 %41, label %63, label %42

42:                                               ; preds = %35
  %43 = load i32, i32* %11, align 4
  %44 = sext i32 %43 to i64
  %45 = getelementptr inbounds [501 x i8], [501 x i8]* %9, i64 0, i64 %44
  %46 = load i8, i8* %45, align 1
  %47 = sext i8 %46 to i32
  %48 = icmp eq i32 %47, 84
  br i1 %48, label %63, label %49

49:                                               ; preds = %42
  %50 = load i32, i32* %11, align 4
  %51 = sext i32 %50 to i64
  %52 = getelementptr inbounds [501 x i8], [501 x i8]* %9, i64 0, i64 %51
  %53 = load i8, i8* %52, align 1
  %54 = sext i8 %53 to i32
  %55 = icmp eq i32 %54, 67
  br i1 %55, label %63, label %56

56:                                               ; preds = %49
  %57 = load i32, i32* %11, align 4
  %58 = sext i32 %57 to i64
  %59 = getelementptr inbounds [501 x i8], [501 x i8]* %9, i64 0, i64 %58
  %60 = load i8, i8* %59, align 1
  %61 = sext i8 %60 to i32
  %62 = icmp eq i32 %61, 71
  br i1 %62, label %63, label %66

63:                                               ; preds = %56, %49, %42, %35
  %64 = load double, double* %5, align 8
  %65 = fadd double %64, 1.000000e+00
  store double %65, double* %5, align 8
  br label %66

66:                                               ; preds = %63, %56
  %67 = load i32, i32* %11, align 4
  %68 = sext i32 %67 to i64
  %69 = getelementptr inbounds [501 x i8], [501 x i8]* %10, i64 0, i64 %68
  %70 = load i8, i8* %69, align 1
  %71 = sext i8 %70 to i32
  %72 = icmp eq i32 %71, 65
  br i1 %72, label %94, label %73

73:                                               ; preds = %66
  %74 = load i32, i32* %11, align 4
  %75 = sext i32 %74 to i64
  %76 = getelementptr inbounds [501 x i8], [501 x i8]* %10, i64 0, i64 %75
  %77 = load i8, i8* %76, align 1
  %78 = sext i8 %77 to i32
  %79 = icmp eq i32 %78, 84
  br i1 %79, label %94, label %80

80:                                               ; preds = %73
  %81 = load i32, i32* %11, align 4
  %82 = sext i32 %81 to i64
  %83 = getelementptr inbounds [501 x i8], [501 x i8]* %10, i64 0, i64 %82
  %84 = load i8, i8* %83, align 1
  %85 = sext i8 %84 to i32
  %86 = icmp eq i32 %85, 67
  br i1 %86, label %94, label %87

87:                                               ; preds = %80
  %88 = load i32, i32* %11, align 4
  %89 = sext i32 %88 to i64
  %90 = getelementptr inbounds [501 x i8], [501 x i8]* %10, i64 0, i64 %89
  %91 = load i8, i8* %90, align 1
  %92 = sext i8 %91 to i32
  %93 = icmp eq i32 %92, 71
  br i1 %93, label %94, label %97

94:                                               ; preds = %87, %80, %73, %66
  %95 = load double, double* %7, align 8
  %96 = fadd double %95, 1.000000e+00
  store double %96, double* %7, align 8
  br label %97

97:                                               ; preds = %94, %87
  br label %98

98:                                               ; preds = %97
  %99 = load i32, i32* %11, align 4
  %100 = add nsw i32 %99, 1
  store i32 %100, i32* %11, align 4
  br label %29

101:                                              ; preds = %29
  %102 = load double, double* %5, align 8
  %103 = load double, double* %3, align 8
  %104 = fcmp oeq double %102, %103
  br i1 %104, label %105, label %152

105:                                              ; preds = %101
  %106 = load double, double* %7, align 8
  %107 = load double, double* %4, align 8
  %108 = fcmp oeq double %106, %107
  br i1 %108, label %109, label %152

109:                                              ; preds = %105
  %110 = load double, double* %3, align 8
  %111 = load double, double* %4, align 8
  %112 = fcmp oeq double %110, %111
  br i1 %112, label %113, label %152

113:                                              ; preds = %109
  store i32 0, i32* %11, align 4
  br label %114

114:                                              ; preds = %136, %113
  %115 = load i32, i32* %11, align 4
  %116 = sitofp i32 %115 to double
  %117 = load double, double* %3, align 8
  %118 = fsub double %117, 1.000000e+00
  %119 = fcmp olt double %116, %118
  br i1 %119, label %120, label %139

120:                                              ; preds = %114
  %121 = load i32, i32* %11, align 4
  %122 = sext i32 %121 to i64
  %123 = getelementptr inbounds [501 x i8], [501 x i8]* %9, i64 0, i64 %122
  %124 = load i8, i8* %123, align 1
  %125 = sext i8 %124 to i32
  %126 = load i32, i32* %11, align 4
  %127 = sext i32 %126 to i64
  %128 = getelementptr inbounds [501 x i8], [501 x i8]* %10, i64 0, i64 %127
  %129 = load i8, i8* %128, align 1
  %130 = sext i8 %129 to i32
  %131 = icmp eq i32 %125, %130
  br i1 %131, label %132, label %135

132:                                              ; preds = %120
  %133 = load double, double* %6, align 8
  %134 = fadd double %133, 1.000000e+00
  store double %134, double* %6, align 8
  br label %135

135:                                              ; preds = %132, %120
  br label %136

136:                                              ; preds = %135
  %137 = load i32, i32* %11, align 4
  %138 = add nsw i32 %137, 1
  store i32 %138, i32* %11, align 4
  br label %114

139:                                              ; preds = %114
  %140 = load double, double* %6, align 8
  %141 = load double, double* %3, align 8
  %142 = fsub double %141, 1.000000e+00
  %143 = fdiv double %140, %142
  store double %143, double* %8, align 8
  %144 = load double, double* %8, align 8
  %145 = load double, double* %2, align 8
  %146 = fcmp ogt double %144, %145
  br i1 %146, label %147, label %149

147:                                              ; preds = %139
  %148 = call i32 (i8*, ...) @printf(i8* getelementptr inbounds ([4 x i8], [4 x i8]* @.str.3, i64 0, i64 0))
  br label %151

149:                                              ; preds = %139
  %150 = call i32 (i8*, ...) @printf(i8* getelementptr inbounds ([3 x i8], [3 x i8]* @.str.4, i64 0, i64 0))
  br label %151

151:                                              ; preds = %149, %147
  br label %152

152:                                              ; preds = %151, %109, %105, %101
  %153 = load double, double* %5, align 8
  %154 = load double, double* %3, align 8
  %155 = fcmp une double %153, %154
  br i1 %155, label %160, label %156

156:                                              ; preds = %152
  %157 = load double, double* %7, align 8
  %158 = load double, double* %4, align 8
  %159 = fcmp une double %157, %158
  br i1 %159, label %160, label %166

160:                                              ; preds = %156, %152
  %161 = load double, double* %3, align 8
  %162 = load double, double* %4, align 8
  %163 = fcmp oeq double %161, %162
  br i1 %163, label %164, label %166

164:                                              ; preds = %160
  %165 = call i32 (i8*, ...) @printf(i8* getelementptr inbounds ([6 x i8], [6 x i8]* @.str.2, i64 0, i64 0))
  br label %166

166:                                              ; preds = %164, %160, %156
  ret i32 0
}

declare dso_local i32 @__isoc99_scanf(i8*, ...) #1

; Function Attrs: nounwind readonly
declare dso_local i64 @strlen(i8*) #2

declare dso_local i32 @printf(i8*, ...) #1


!llvm.module.flags = !{!0}
!llvm.ident = !{!1}

!0 = !{i32 1, !"wchar_size", i32 4}
!1 = !{!"clang version 10.0.0-4ubuntu1 "}
